(lp0
I4078
aI5746
aI7194
aI7548
aI4333
aI1567
aI1567
aI5537
aI4333
aI1567
aI4333
aI5746
aI7194
aI7548
aI1567
aI4333
aI7194
aI4333
aI4333
aI1142
aI1142
aI3482
aI501
aI1142
aI3482
aI3482
aI1695
aI3482
aI1695
aI4333
aI1567
aI1567
aI4473
aI7548
aI1567
aI4473
aI4473
aI4078
aI4473
aI1567
aI1567
aI4333
aI4078
aI7548
aI3482
aI4473
aI4473
aI5746
aI7194
aI7548
aI5746
aI7194
aI7548
aI1695
aI4473
aI4078
aI4078
aI4078
aI7548
aI7548
aI4473
aI4078
aI5746
aI7194
aI7548
aI4078
aI5561
aI1695
aI1695
aI5561
aI1567
aI6986
aI4473
aI139
aI1232
aI4078
aI4899
aI139
aI1232
aI1567
aI3482
aI1695
aI3482
aI5561
aI5561
aI8853
aI1142
a.