(lp0
I5483
aI8230
aI796
aI1372
aI5525
aI6094
aI6802
aI6299
aI7095
aI796
aI5525
aI6094
aI9623
aI5003
aI2641
aI3687
aI3877
aI9611
aI3687
aI3687
aI8887
aI3687
aI7095
aI5483
aI8422
aI1093
aI5525
aI8547
aI5483
aI5647
aI7095
aI3687
aI3687
aI9223
aI1985
aI9223
aI3687
aI3000
aI5003
aI3687
aI3000
aI3448
a.