(lp0
I6493
aI535
aI7582
aI8405
aI9892
aI1059
aI2329
aI4733
aI5612
aI6530
aI6635
aI7249
aI8313
aI9876
aI4342
aI168
aI1051
aI1464
aI4693
aI4709
aI9191
aI1059
aI2329
aI4733
aI5252
aI5612
aI6530
aI6635
aI7249
aI7901
aI8163
aI2246
aI8177
a.