(lp0
I6841
aI2913
aI6514
aI3315
aI3879
aI3833
aI4145
aI6841
aI9114
aI2258
aI3957
aI3957
aI2258
aI3957
aI2258
aI9361
aI3957
aI3683
aI9364
aI3833
aI9049
aI3833
aI4145
aI6841
aI422
aI9114
aI5139
aI5139
aI5139
aI172
aI5065
aI6023
aI8033
aI3957
aI3683
aI1023
aI5374
aI9049
aI9364
aI9511
aI3833
aI4145
aI6841
aI9114
aI7061
aI3957
aI3683
aI8458
aI2258
aI3957
aI4021
aI3957
aI3957
aI9364
aI5098
aI9364
a.