(lp0
I3820
aI2336
aI2709
aI4883
aI4206
aI2336
aI2826
aI3308
aI8317
aI2389
aI4883
aI8148
aI7387
aI8317
aI2336
aI2709
aI8360
aI2826
aI3308
aI3820
aI8317
aI1972
aI2709
aI2826
aI3308
aI3820
aI3308
aI7387
aI8317
aI7489
aI1972
aI4698
aI8222
aI4698
aI2336
aI7489
aI7867
aI9783
aI5875
aI7850
aI8360
aI1516
aI7379
a.