(lp0
I1516
aI8624
aI1516
aI5540
aI7922
aI5123
aI7922
aI1516
aI1516
aI7
aI2890
aI1516
aI9206
aI216
aI6946
aI216
aI3303
aI4833
aI7
aI2890
aI7
aI1704
aI5540
aI6946
aI2125
aI7922
aI6993
aI1931
aI5123
aI7922
aI1931
aI1931
aI6644
aI7636
aI8165
aI2327
aI5010
aI4538
aI4538
aI5
aI5
aI9141
aI4944
aI5010
aI7489
aI1555
aI1972
aI1516
aI5010
aI7288
aI7
aI6844
aI5
aI8624
aI4109
aI4698
aI6946
aI5
aI9112
aI7489
aI7867
aI9783
aI1931
aI4538
aI1516
aI5010
aI8928
a.