(lp0
I5483
aI595
aI9844
aI5483
aI8422
aI595
aI3542
aI796
aI5525
aI6094
aI8887
aI8887
aI5483
aI8491
aI8732
aI5483
aI8422
aI5023
aI2142
aI8732
aI595
aI9746
aI595
aI3542
aI9061
aI9925
aI9746
aI5023
aI5224
aI9746
aI9925
aI5483
a.