(lp0
I7876
aI9512
aI1022
aI2108
aI9368
aI7876
aI2108
aI9512
aI8437
aI8437
aI9317
aI9363
aI207
aI9363
aI7876
aI9512
aI9512
aI661
aI7605
aI8303
aI8303
aI1306
aI1306
aI3100
aI1306
aI7876
aI9512
aI1022
aI2108
aI9512
aI2108
aI8437
aI207
aI9528
aI3791
aI7131
aI1022
aI1022
aI2108
aI9512
aI2108
aI3791
aI8437
aI7666
aI1022
aI2108
aI1022
aI3894
aI1022
aI3894
aI8437
a.