(lp0
I7425
aI4914
aI4914
aI6402
aI6402
aI4914
aI4914
aI4914
aI4914
aI6402
aI8598
aI7425
aI4914
aI6402
aI6402
aI6550
aI6550
aI2747
aI3313
aI5089
aI5226
aI5740
aI8278
aI4914
aI4914
aI8598
aI6550
aI7425
aI2747
aI3313
aI5089
aI5226
aI5740
aI8278
aI9891
aI4914
aI4914
aI4914
aI4914
aI8598
aI7425
aI7425
aI4914
aI4914
aI8598
aI6550
aI4914
aI8598
aI4914
aI4914
aI6402
aI6402
aI8598
aI7678
aI6550
aI4914
aI6402
aI8598
aI3313
aI5089
aI5740
aI7425
aI8278
aI8598
aI8598
aI8164
a.