(lp0
I8131
aI9325
aI4161
aI9325
aI4996
aI9325
aI8131
aI4992
aI7126
aI2395
aI4015
aI4015
aI5846
aI1200
aI4992
aI446
aI2453
aI4786
aI5397
aI7513
aI9004
aI108
aI2620
aI9016
aI6389
aI9486
aI4015
aI2395
aI567
aI3057
aI3326
aI4058
aI6017
aI7534
aI8315
aI9682
aI115
aI567
aI4058
aI4636
aI6017
aI7534
aI8921
aI9682
aI2453
aI5846
aI1786
aI2395
aI5846
aI2620
aI9912
aI508
aI7126
aI108
aI508
aI9016
a.