(lp0
I27267
aI14049
aI52837
aI74963
aI3820
aI14049
aI16951
aI17153
aI27138
aI28908
aI36200
aI40736
aI43862
aI51531
aI58524
aI58704
aI61061
aI73055
aI87134
aI2336
aI12092
aI29630
aI36211
aI40608
aI40803
aI51589
aI85195
aI88129
aI11499
aI41049
aI27267
aI29630
aI36211
aI40803
aI85195
aI2709
aI11502
aI19360
aI20622
aI22584
aI25858
aI30916
aI34839
aI51589
aI53679
aI56639
aI69952
aI72686
aI74753
aI4883
aI14049
aI87134
aI14049
aI16951
aI14799
aI20292
aI4206
aI52837
aI78823
aI2336
aI11502
aI19360
aI23696
aI28095
aI30270
aI32223
aI51589
aI88129
aI2826
aI3308
aI8317
aI14326
aI36025
aI36200
aI38548
aI42177
aI52489
aI57673
aI77113
aI15538
aI17153
aI25088
aI27138
aI28908
aI43862
aI51531
aI58524
aI61061
aI62281
aI87438
aI94429
aI2389
aI19749
aI54972
aI34839
aI54972
aI43054
aI4883
aI8148
aI11635
aI15195
aI15604
aI27827
aI31727
aI33523
aI35428
aI40586
aI42608
aI44211
aI45268
aI49258
aI50226
aI56454
aI56570
aI58820
aI59143
aI62467
aI67121
aI67303
aI67784
aI68297
aI70720
aI75366
aI79282
aI79405
aI91782
aI91784
aI92343
aI95416
aI95497
aI97926
aI42459
aI41049
aI41049
aI14049
aI16951
aI34839
aI69952
aI74753
aI7387
aI8317
aI14326
aI16279
aI17360
aI49998
aI57673
aI66244
aI73008
aI77113
aI85754
aI96690
aI2336
aI2709
aI16951
aI17153
aI19360
aI20622
aI22584
aI24959
aI28095
aI28908
aI32223
aI34839
aI36200
aI36211
aI37105
aI51531
aI52489
aI53679
aI61061
aI69952
aI70921
aI72686
aI74753
aI78920
aI87231
aI88129
aI8360
aI11273
aI17360
aI22584
aI27682
aI31865
aI40405
aI44416
aI49998
aI52885
aI56639
aI57994
aI59986
aI62741
aI73008
aI78920
aI83950
aI2826
aI3308
aI3820
aI8317
aI17153
aI27138
aI36025
aI36200
aI38548
aI42177
aI52489
aI57673
aI58524
aI92476
aI46076
aI11499
aI41049
aI65826
aI28908
aI40736
aI43862
aI58704
aI61061
aI73055
aI88910
aI14049
aI27267
aI1972
aI36696
aI44272
aI79758
aI87527
aI92636
aI95747
aI52837
aI19710
aI93150
aI16951
aI27267
aI14799
aI40608
aI42459
aI87134
aI36025
aI14799
aI2709
aI19360
aI20622
aI22584
aI24959
aI25858
aI32223
aI34839
aI53679
aI56639
aI69952
aI72686
aI74753
aI78920
aI87134
aI21017
aI31318
aI36696
aI44272
aI44987
aI63001
aI65826
aI67242
aI77181
aI79758
aI80276
aI82345
aI86819
aI87527
aI95747
aI27267
aI88910
aI94360
aI2826
aI3308
aI3820
aI17153
aI27138
aI38548
aI52489
aI57673
aI58524
aI85754
aI27138
aI88910
aI13562
aI74366
aI12092
aI27267
aI29630
aI85195
aI87438
aI22584
aI27682
aI31865
aI34839
aI56639
aI69952
aI74753
aI50062
aI86819
aI25088
aI28908
aI51531
aI94429
aI14049
aI3308
aI7387
aI8317
aI14326
aI16279
aI42177
aI52489
aI57673
aI66244
aI77113
aI85754
aI96690
aI17153
aI27138
aI28908
aI43862
aI51531
aI58524
aI58704
aI61061
aI87438
aI94429
aI11499
aI82345
aI7489
aI10977
aI26109
aI38453
aI50481
aI51356
aI54413
aI58362
aI64709
aI52531
aI40736
aI88910
aI14049
aI16951
aI19360
aI34839
aI69952
aI32223
aI34839
aI37105
aI69952
aI74753
aI87231
aI49258
aI58820
aI67303
aI67784
aI68444
aI72201
aI79282
aI91784
aI1972
aI42459
aI87134
aI4698
aI21525
aI36881
aI91774
aI99176
aI8222
aI59730
aI83675
aI12092
aI27267
aI4698
aI16760
aI21525
aI36881
aI39180
aI54013
aI56292
aI73842
aI84779
aI85774
aI86846
aI90283
aI91774
aI99176
aI71842
aI87438
aI21017
aI36696
aI44272
aI50062
aI74366
aI80276
aI86819
aI74366
aI16279
aI23696
aI25858
aI57994
aI63604
aI94250
aI2336
aI12092
aI16951
aI28095
aI36211
aI27267
aI94360
aI87134
aI88910
aI31318
aI44987
aI67242
aI87527
aI7489
aI7867
aI9783
aI10977
aI18804
aI23974
aI26109
aI45889
aI48492
aI50481
aI51356
aI56292
aI58362
aI67350
aI80323
aI86846
aI99176
aI5875
aI7850
aI8360
aI15027
aI19989
aI20262
aI20715
aI25597
aI27682
aI31493
aI31865
aI32432
aI33829
aI40405
aI44416
aI56639
aI59925
aI62741
aI63604
aI64661
aI69592
aI74730
aI79577
aI79900
aI83950
aI90422
aI94250
aI94286
aI98324
aI98995
aI1516
aI95959
aI7379
aI19749
aI43054
aI54972
aI71636
aI78373
aI11499
aI41049
a.