(lp0
I8808
aI70340
aI94136
aI21638
aI59211
aI46859
aI53755
aI55772
aI93478
aI76718
aI93514
aI90250
aI68367
aI2978
aI6545
aI40928
aI58761
aI32702
aI34063
aI46859
aI43765
aI61824
aI61824
aI19861
aI66760
aI95598
aI52777
aI90250
aI6694
aI37386
aI37386
aI56428
aI4822
aI64349
aI69652
aI58350
aI69809
aI75633
aI22800
aI61171
aI67309
aI69266
aI72687
aI92375
aI92375
aI92375
aI27510
aI2979
aI25566
aI27510
aI91544
aI46859
aI28589
aI3931
aI19006
aI70530
aI18569
aI61532
aI35893
aI3202
aI31713
aI33422
aI39315
aI50606
aI86716
aI10518
aI3724
aI4079
aI59211
aI71525
aI83842
aI12615
aI80051
a.