(lp0
I35054
aI40493
aI64615
aI12799
aI19041
aI19500
aI50934
aI50934
aI72955
aI69213
aI15040
aI50934
aI56494
aI12799
aI19500
aI95239
aI12799
aI19500
aI383
aI8377
aI13467
aI20632
aI57751
aI67234
aI96869
aI70509
aI163
aI35054
aI39380
aI50974
aI54552
aI79225
aI89630
aI98296
aI74796
aI84553
aI31446
aI50934
aI67234
aI163
aI8540
aI34190
aI50974
aI79225
aI98296
aI73533
aI8107
aI59999
aI95405
aI163
aI34190
aI50974
aI70252
aI79225
aI89630
aI97694
aI98296
aI50934
aI12799
aI19500
aI95239
aI72955
aI3342
aI14975
aI22960
aI66867
aI81126
aI89778
aI163
aI15432
aI20316
aI34190
aI34844
aI50974
aI89630
aI97694
aI98296
aI163
aI8540
aI34190
aI50974
aI79225
aI89630
aI98296
aI8540
aI2265
aI12799
aI19041
aI19500
aI36453
aI43076
aI61630
aI63895
aI67253
aI95239
aI19500
aI30389
aI74796
aI84553
aI12799
aI19041
aI19500
aI30389
aI74796
aI84553
aI95267
aI67412
aI69547
aI43641
aI50934
aI72955
aI43641
aI72955
aI95267
aI11408
aI12799
aI19041
aI19500
aI44592
aI45964
aI67253
aI94263
aI95239
aI50934
aI37280
aI72955
aI50934
aI3342
aI22960
aI66867
aI81126
aI89778
aI8540
aI34190
aI8540
aI34190
aI97694
aI8540
aI34190
aI50974
aI79225
aI97694
aI98296
aI8540
aI50974
aI54552
aI79225
aI98296
aI4556
aI8744
aI66611
aI73533
aI4556
aI8744
aI55160
aI70509
aI4556
aI8540
aI8744
aI66611
aI73533
aI8540
aI34190
aI39140
aI36238
aI66357
aI70252
aI163
aI54552
aI50974
aI70252
aI70252
aI70509
aI70509
aI14975
aI36238
aI3342
aI12127
aI14975
aI15503
aI66867
aI81126
aI89778
aI20076
aI53923
aI91475
aI50974
aI98296
a.