(lp0
I66396
aI88745
aI6841
aI33354
aI62007
aI65919
aI2913
aI6514
aI27938
aI44261
aI48306
aI57302
aI64689
aI67062
aI69624
aI78145
aI86506
aI92620
aI96074
aI40505
aI40505
aI23267
aI3315
aI12563
aI13522
aI24286
aI25647
aI25759
aI28886
aI33641
aI37548
aI62821
aI64700
aI66838
aI68968
aI69322
aI71510
aI90133
aI94185
aI88745
aI3879
aI10486
aI12563
aI22244
aI25759
aI27319
aI29371
aI37548
aI52671
aI60035
aI63586
aI71510
aI87894
aI13522
aI66838
aI64700
aI3833
aI4145
aI6841
aI9114
aI11904
aI12641
aI14127
aI16430
aI18106
aI20782
aI29572
aI31684
aI33354
aI33638
aI37901
aI40131
aI40776
aI51517
aI54141
aI55812
aI60388
aI61696
aI62007
aI65919
aI67458
aI69397
aI70304
aI72442
aI72659
aI75412
aI82699
aI84440
aI90953
aI93061
aI96273
aI26946
aI30334
aI32965
aI33376
aI39441
aI41004
aI42626
aI45243
aI55618
aI62416
aI74216
aI85714
aI87390
aI99588
aI2258
aI3957
aI13069
aI32867
aI35149
aI43802
aI82708
aI83104
aI3957
aI13069
aI18177
aI39025
aI42424
aI45266
aI2258
aI3957
aI27091
aI28639
aI32302
aI32867
aI39025
aI42424
aI43802
aI45266
aI82718
aI98428
aI2258
aI9361
aI10847
aI16586
aI21847
aI27091
aI32302
aI32867
aI35149
aI35217
aI35969
aI39805
aI43802
aI44154
aI49964
aI50706
aI56402
aI58780
aI59492
aI66382
aI77239
aI78377
aI79029
aI82718
aI83104
aI98428
aI27091
aI82718
aI84534
aI43802
aI3957
aI42424
aI3683
aI14499
aI18177
aI23210
aI24017
aI25946
aI28380
aI39025
aI44870
aI45266
aI49022
aI49230
aI74530
aI43802
aI74172
aI9364
aI12780
aI30130
aI34511
aI36033
aI41455
aI62001
aI73950
aI83121
aI84992
aI64700
aI64700
aI87894
aI90133
aI12641
aI39028
aI40131
aI46027
aI51517
aI3833
aI12641
aI14127
aI18106
aI19217
aI29766
aI34975
aI40131
aI46027
aI51517
aI54419
aI55812
aI57863
aI60388
aI61696
aI64571
aI67458
aI70304
aI72442
aI75080
aI81359
aI82646
aI93061
aI98577
aI9049
aI14979
aI25567
aI36192
aI44550
aI46137
aI52030
aI69769
aI72659
aI73541
aI74172
aI75935
aI82536
aI95606
aI96273
aI3833
aI4145
aI6841
aI11904
aI12641
aI16430
aI18106
aI19217
aI29572
aI33354
aI37901
aI40131
aI40776
aI46137
aI54141
aI55812
aI60388
aI62007
aI65919
aI69397
aI70304
aI72659
aI84440
aI90953
aI93061
aI96273
aI422
aI12482
aI99680
aI22244
aI29371
aI32375
aI52671
aI63586
aI87894
aI36646
aI12641
aI32375
aI36646
aI40131
aI46027
aI51517
aI75080
aI12641
aI18106
aI40131
aI46027
aI51517
aI60388
aI61696
aI67458
aI72442
aI75080
aI93061
aI12641
aI18106
aI29766
aI34975
aI36646
aI40131
aI46027
aI51517
aI54419
aI60388
aI61696
aI67458
aI72442
aI75080
aI81359
aI93061
aI22244
aI27319
aI87894
aI9114
aI11904
aI12641
aI18106
aI29572
aI33354
aI37901
aI40131
aI46027
aI51517
aI55812
aI60388
aI67458
aI72442
aI75412
aI81359
aI82699
aI93061
aI5139
aI29572
aI34975
aI55812
aI60388
aI67458
aI72442
aI81359
aI12641
aI40131
aI46137
aI51517
aI67458
aI75412
aI93061
aI35439
aI46027
aI22244
aI29371
aI52671
aI63586
aI71510
aI87894
aI88745
aI5139
aI19217
aI34975
aI60388
aI61696
aI67458
aI72442
aI81359
aI93061
aI32375
aI39028
aI46027
aI12641
aI18106
aI34975
aI35439
aI39028
aI40131
aI46027
aI51517
aI54419
aI70304
aI72442
aI75080
aI93061
aI5139
aI81359
aI39028
aI62416
aI85714
aI99588
aI23541
aI91689
aI25129
aI26946
aI30334
aI32965
aI33376
aI39058
aI39441
aI41004
aI42626
aI45243
aI55618
aI62416
aI74216
aI85714
aI87390
aI99588
aI91689
aI32965
aI33376
aI39058
aI62416
aI172
aI5065
aI6023
aI8033
aI26187
aI26946
aI29250
aI31035
aI32965
aI41004
aI44499
aI45366
aI51293
aI53955
aI55618
aI59784
aI62416
aI68948
aI69521
aI74216
aI85714
aI87390
aI99588
aI39028
aI23541
aI23541
aI15965
aI99399
aI62416
aI85714
aI15965
aI56625
aI14499
aI45266
aI34975
aI78566
aI3957
aI13069
aI18177
aI32867
aI45266
aI82708
aI23210
aI25946
aI74530
aI82708
aI14499
aI39058
aI49230
aI3683
aI13069
aI14499
aI15372
aI15965
aI25129
aI39058
aI45243
aI56625
aI71609
aI85160
aI89615
aI99399
aI41004
aI55618
aI62416
aI85714
aI36033
aI62001
aI83121
aI84992
aI12780
aI1023
aI5374
aI9049
aI9364
aI9511
aI12780
aI14979
aI16109
aI25567
aI30130
aI32888
aI34511
aI36033
aI36192
aI37901
aI41455
aI44550
aI46137
aI46434
aI50757
aI51248
aI52030
aI55131
aI62001
aI63807
aI67097
aI68634
aI69376
aI69397
aI70935
aI72659
aI73950
aI74172
aI76036
aI76788
aI82536
aI84440
aI84992
aI88051
aI88270
aI90953
aI94471
aI96273
aI15965
aI25129
aI34347
aI44499
aI44933
aI51293
aI53955
aI55618
aI62416
aI74216
aI85714
aI87390
aI99399
aI30334
aI39058
aI52438
aI62416
aI64589
aI85714
aI29146
aI34347
aI71609
aI3833
aI4145
aI6841
aI9114
aI11904
aI12641
aI16430
aI18106
aI20782
aI29572
aI33354
aI33638
aI34975
aI35439
aI36646
aI40131
aI40776
aI46027
aI47285
aI51517
aI54141
aI55812
aI57844
aI57863
aI60388
aI61696
aI62007
aI64571
aI65919
aI66411
aI67458
aI69397
aI70304
aI72442
aI75080
aI75412
aI82646
aI82699
aI83706
aI93061
aI98163
aI22244
aI27319
aI63586
aI87894
aI23541
aI33376
aI91689
aI22244
aI27319
aI63586
aI87894
aI35947
aI23267
aI35947
aI36469
aI23210
aI25946
aI74530
aI15965
aI40505
aI82708
aI35947
aI96074
aI76509
aI16109
aI14127
aI76509
aI7061
aI48580
aI3957
aI13069
aI18177
aI25946
aI39025
aI42424
aI45266
aI13069
aI15372
aI35149
aI56625
aI71609
aI83104
aI85160
aI89615
aI3683
aI13069
aI14499
aI15372
aI49230
aI42424
aI21962
aI13069
aI15372
aI71609
aI89615
aI8458
aI15965
aI25129
aI26946
aI30334
aI32965
aI34347
aI39058
aI41004
aI43818
aI44499
aI45243
aI45366
aI51293
aI53955
aI55618
aI62416
aI74216
aI78707
aI85714
aI87390
aI99399
aI99588
aI2258
aI3957
aI4021
aI13069
aI15372
aI28639
aI32302
aI32867
aI35149
aI37076
aI45266
aI51703
aI56625
aI68364
aI75821
aI82708
aI83104
aI85160
aI45266
aI3957
aI28639
aI32867
aI39025
aI42424
aI3957
aI42424
aI9364
aI12780
aI30130
aI34511
aI36033
aI62001
aI83121
aI84992
aI98163
aI5098
aI9364
aI11894
aI12780
aI30130
aI34511
aI36033
aI41455
aI50757
aI62001
aI73950
aI76788
aI84992
aI91522
aI92538
aI94471
aI12780
aI34511
aI16430
aI40505
a.