(lp0
I10331
aI41392
aI47689
aI70866
aI5483
aI38308
aI48682
aI595
aI51243
aI54445
aI58530
aI64637
aI65024
aI96760
aI97439
aI45429
aI59358
aI82177
aI97510
aI51243
aI58004
aI89923
aI29868
aI64637
aI13462
aI20988
aI34430
aI44697
aI48121
aI59976
aI65312
aI76044
aI9844
aI16206
aI39942
aI42154
aI47689
aI5483
aI8422
aI36501
aI48682
aI88384
aI51243
aI58004
aI89923
aI595
aI3542
aI11782
aI21206
aI29728
aI38102
aI51744
aI51784
aI54445
aI56465
aI57361
aI64637
aI93053
aI94042
aI96760
aI97439
aI51243
aI58004
aI63403
aI89923
aI796
aI5525
aI6094
aI13429
aI17517
aI24236
aI29194
aI30085
aI33038
aI33131
aI36179
aI39150
aI41143
aI45429
aI51095
aI51190
aI51679
aI54376
aI55730
aI58945
aI59358
aI63482
aI70131
aI82177
aI83640
aI95299
aI95845
aI97510
aI97768
aI99770
aI70522
aI42154
aI41392
aI42154
aI37171
aI54314
aI80439
aI55832
aI8887
aI34146
aI40111
aI40784
aI41770
aI42498
aI46840
aI81252
aI87421
aI70522
aI8887
aI32393
aI40111
aI40784
aI41770
aI42386
aI44775
aI56420
aI72497
aI81252
aI85232
aI87421
aI58588
aI63403
aI5483
aI8491
aI32393
aI42386
aI62083
aI72497
aI16206
aI42154
aI11782
aI8732
aI10427
aI19015
aI41392
aI47689
aI70866
aI88159
aI89697
aI90313
aI5483
aI8422
aI16899
aI30123
aI36501
aI48682
aI54376
aI57057
aI62141
aI75897
aI85053
aI88384
aI13429
aI17301
aI33038
aI48682
aI58945
aI63482
aI70131
aI97510
aI99770
aI42154
aI5023
aI10331
aI19789
aI38481
aI39942
aI42098
aI42835
aI47689
aI54408
aI62126
aI64471
aI70651
aI84756
aI93550
aI95233
aI62319
aI2142
aI37171
aI60657
aI66004
aI37171
aI66004
aI37171
aI51243
aI63403
aI42154
aI10331
aI41392
aI88159
aI16206
aI41392
aI42154
aI62319
aI8732
aI19015
aI41392
aI70866
aI88159
aI90313
aI595
aI9746
aI10176
aI11782
aI13958
aI14653
aI18545
aI20930
aI22245
aI39506
aI51784
aI52115
aI54445
aI56267
aI63798
aI64637
aI96760
aI97439
aI51243
aI58004
aI89923
aI70522
aI28405
aI37171
aI66004
aI67310
aI91376
aI42154
aI595
aI3542
aI9061
aI9925
aI10176
aI11782
aI13958
aI14653
aI18545
aI21206
aI25483
aI28306
aI29728
aI34469
aI34943
aI38102
aI51744
aI52325
aI52865
aI54445
aI56267
aI56465
aI57361
aI59124
aI61130
aI63798
aI64637
aI65024
aI77558
aI90106
aI94042
aI96760
aI97439
aI9746
aI39506
aI41392
aI52115
aI70866
aI88159
aI5023
aI5224
aI9746
aI9925
aI10176
aI10331
aI14518
aI14653
aI18545
aI18835
aI19789
aI20930
aI21206
aI22245
aI25956
aI28306
aI28912
aI34943
aI39942
aI40124
aI41392
aI42098
aI42488
aI42835
aI42836
aI42964
aI47689
aI49031
aI49045
aI54408
aI54445
aI56267
aI61130
aI64202
aI64471
aI65024
aI67419
aI70651
aI77558
aI77948
aI81352
aI84756
aI86235
aI88159
aI92701
aI93550
aI94017
aI95233
aI98680
aI10176
aI39506
aI51243
aI51784
aI64637
aI63403
aI89923
aI5483
a.