(lp0
I15966
aI50716
aI97707
aI99026
aI17697
aI5402
aI14137
aI14724
aI16362
aI24988
aI30630
aI36436
aI38305
aI42462
aI45939
aI69036
aI75542
aI93076
aI96073
aI15966
aI17697
aI69395
aI14137
aI30630
aI36436
aI38305
aI39785
aI42462
aI56574
aI69036
aI96073
aI98436
aI17697
aI69395
aI15966
a.