(lp0
I65628
aI54576
aI92860
aI9789
aI12741
aI51470
aI58863
aI67035
aI84013
aI86662
aI87933
aI90968
aI55562
aI32813
aI35886
aI47533
aI42250
aI87933
aI90968
aI93922
aI30537
aI9789
aI42250
aI87933
aI90968
aI93922
aI79326
aI92860
aI42250
aI51470
aI53287
aI55562
aI58863
aI61308
aI67035
aI74069
aI84013
aI32813
aI51382
aI32813
aI47533
aI32813
aI36532
aI65628
aI84296
aI92860
aI93681
aI54576
aI92860
aI55562
aI51470
aI53287
aI55562
aI61308
aI67035
aI74069
aI84013
aI32813
aI47533
aI54576
aI53287
aI55562
aI9789
aI79326
aI43045
aI43847
aI26838
aI36532
aI65628
aI84296
aI32813
aI47533
aI2138
aI9789
aI11018
aI32813
aI41134
aI42250
aI47533
aI48550
aI51470
aI53287
aI55562
aI58863
aI59202
aI61308
aI67035
aI79326
aI84013
aI86662
aI87933
aI88580
aI90968
aI93922
aI66957
aI47533
aI54576
aI63742
aI15441
aI32813
aI47533
aI66957
aI60154
aI30537
aI54576
aI30030
aI32813
aI35886
aI36092
aI47533
aI11018
aI41134
aI55562
aI88580
aI69555
aI88017
aI26838
aI11018
aI41134
aI42250
aI51470
aI53287
aI55562
aI61308
aI67035
aI84013
aI10778
aI67035
aI65628
aI35886
aI6618
aI35886
aI51382
aI50487
aI6618
aI51382
aI50487
aI4376
aI29538
aI53229
aI96211
aI97539
aI9463
aI53229
aI78917
aI96211
aI97539
aI26838
aI65628
aI6618
aI6618
aI43045
aI53229
aI61638
aI32813
aI47533
aI54576
aI54576
aI2138
aI30030
aI41134
aI42250
aI48550
aI51470
aI53287
aI55562
aI58863
aI61308
aI67035
aI74069
aI84013
aI86662
aI87933
aI88580
aI90968
aI93922
aI15441
aI32813
aI41134
aI66957
aI88580
aI10778
aI12741
aI42250
aI48550
aI67035
aI74069
aI86662
aI93922
aI30030
aI32813
aI36092
aI47533
aI88017
aI88017
aI79326
aI65628
a.