(lp0
I7804
aI75184
aI7731
aI14754
aI17792
aI22286
aI35698
aI40309
aI41900
aI44191
aI55943
aI67214
aI89223
aI90619
aI97724
aI98870
aI36064
aI52527
aI54926
aI65303
aI77408
aI99814
aI4484
aI81181
aI90498
aI14198
aI36064
aI37884
aI53684
aI65303
aI5065
aI31035
aI36064
aI37884
aI59784
aI95013
aI45771
aI51951
aI64513
aI36268
aI2680
aI6085
aI6992
aI13124
aI13800
aI16052
aI18547
aI18968
aI26514
aI30109
aI33415
aI36268
aI45465
aI50525
aI56111
aI61530
aI63113
aI64109
aI77164
aI78480
aI82038
aI82315
aI87380
aI65328
aI2753
aI16660
aI29933
aI47776
aI50525
aI61118
aI63542
aI68762
aI84712
aI93693
aI95960
aI7731
aI9184
aI88860
aI7731
aI22286
aI35698
aI40309
aI41900
aI44191
aI67214
aI89223
aI90619
aI15044
aI7731
aI6825
aI27663
aI40309
aI57465
aI21901
aI29933
aI36268
aI45465
aI47776
aI70031
aI93693
aI95960
aI7731
aI14754
aI17792
aI21103
aI22286
aI27281
aI35698
aI39374
aI40309
aI41900
aI44191
aI52702
aI55943
aI57349
aI67214
aI70574
aI74258
aI79596
aI89223
aI90619
aI94912
aI96733
aI97724
aI98870
aI2515
aI6825
aI15302
aI26814
aI27663
aI40309
aI56661
aI57465
aI67289
aI78620
aI71260
aI5415
aI12731
aI21854
aI21901
aI62459
aI65276
aI88817
aI99937
aI26532
aI28464
aI35475
aI48248
aI59992
aI87453
aI28464
aI35475
aI48248
aI59992
aI16457
aI25580
aI44196
aI12731
aI15173
aI21901
aI62459
aI65276
aI67725
aI99937
aI2753
aI47776
aI84712
aI2033
aI4978
aI9072
aI26532
aI28464
aI35475
aI39277
aI48248
aI59992
aI34105
aI53306
aI85326
aI85683
aI90912
aI29432
aI38588
aI53562
aI29432
aI29718
aI52461
aI80570
aI44559
aI84060
aI16457
aI36894
aI67725
aI97724
aI967
aI22286
aI33835
aI35698
aI40309
aI41900
aI44191
aI67214
aI80092
aI89223
aI90619
aI35698
aI40309
aI41900
aI44191
aI67214
aI89223
aI90619
aI58955
aI12731
aI99937
aI2753
aI22286
aI90619
aI77002
aI4403
aI5065
aI6023
aI31035
aI36492
aI37884
aI53684
aI54926
aI59784
aI89404
aI99814
aI65043
aI69367
aI64266
aI86676
aI13071
aI29432
aI29718
aI38588
aI49273
aI52461
aI53562
aI2753
aI5605
aI6645
aI20222
aI21728
aI34605
aI65424
aI74568
aI75397
aI5415
aI12731
aI62459
aI65276
aI67725
aI99937
aI16175
aI25971
aI26517
aI29718
aI49273
aI52461
aI80570
aI16660
aI29933
aI36268
aI45465
aI47776
aI50525
aI63542
aI68762
aI70031
aI93693
aI95960
aI21901
aI36268
aI62459
aI99937
aI12761
aI34105
aI76466
aI85326
aI90912
aI9072
aI12761
aI18986
aI25008
aI25271
aI26532
aI34105
aI35344
aI35475
aI48248
aI59975
aI59992
aI66476
aI71977
aI77785
aI85326
aI87453
aI94105
aI94411
aI2753
aI18547
aI47776
aI59862
aI63542
aI68762
aI13071
aI90437
aI32296
aI37631
aI47071
aI50564
aI55923
aI57666
aI58679
aI64314
aI71761
aI86166
aI91171
aI8704
aI22179
aI47071
aI50564
aI57666
aI68625
aI84448
aI14198
aI2753
aI15173
aI67725
aI81665
aI88597
aI2680
aI6085
aI6992
aI13124
aI13800
aI26514
aI30109
aI33415
aI61530
aI63113
aI64109
aI77164
aI78480
aI82038
aI87380
aI90717
aI97668
aI95013
aI54926
aI99814
aI58978
aI20758
aI27393
aI7731
aI20222
aI88860
aI58956
aI67929
aI5415
aI21901
aI62459
aI99937
aI21901
aI5415
aI12731
aI15173
aI62459
aI65276
aI16457
aI36976
aI61905
aI65043
aI69367
aI7731
aI22286
aI55943
aI2753
aI16660
aI36268
aI47776
aI50525
aI59862
aI68762
aI70031
aI16457
aI44196
aI16457
aI36894
aI44196
aI15173
aI23516
aI32789
aI56113
aI67725
aI81665
aI21901
aI36268
aI8704
aI47228
aI57589
aI58679
aI68625
aI71761
aI86166
aI169
aI29933
aI47228
aI74636
aI84712
aI5415
aI12731
aI21901
aI62459
aI65276
aI81068
aI99937
aI12731
aI21854
aI21901
aI32296
aI62459
aI65276
aI68836
aI81068
aI81129
aI88817
aI89170
aI98765
aI99937
aI6085
aI27530
aI45465
aI56111
aI1283
aI11451
aI20065
aI32296
aI34629
aI47228
aI52776
aI68836
aI74636
aI88453
aI93686
aI47228
aI57666
aI58679
aI74636
aI86166
aI1283
aI13138
aI16933
aI20065
aI34629
aI68836
aI88453
aI93686
aI16052
aI16933
aI56111
aI81068
aI81129
aI82315
aI2515
aI6969
aI11436
aI15053
aI15302
aI74323
aI10619
aI21687
aI2753
aI16660
aI18547
aI47776
aI59862
aI63113
aI68762
aI90437
aI2753
aI21251
aI30907
aI65424
aI15173
aI56113
aI81665
aI29933
aI47776
aI60227
aI61118
aI73278
aI74636
aI84712
aI93693
aI95516
aI95960
aI2753
aI16660
aI18547
aI18968
aI29933
aI36268
aI45465
aI47776
aI50525
aI59862
aI63542
aI68762
aI70031
aI93693
aI95960
aI16457
aI31825
aI33670
aI36894
aI44196
aI62665
aI90232
aI98540
aI16457
aI36894
aI61905
aI67725
aI13502
aI33670
aI68526
aI77002
aI84096
aI21854
aI62459
aI88817
aI90232
aI15173
aI88597
aI3201
aI5415
aI21854
aI34629
aI52739
aI56277
aI61618
aI62459
aI65276
aI66327
aI67725
aI68836
aI77002
aI81068
aI86448
aI88817
aI89170
aI98765
aI33670
aI36894
aI37631
aI67725
aI90232
aI98540
aI21854
aI58978
aI62459
aI88817
aI96534
aI73830
aI88597
aI25008
aI25271
aI35344
aI66476
aI94105
aI95262
aI15173
aI81665
aI88597
aI26532
aI35475
aI59992
aI7731
aI22286
aI27281
aI33835
aI35698
aI39374
aI40309
aI41900
aI44191
aI55943
aI67214
aI80092
aI89223
aI90619
aI96733
aI97724
aI10619
aI11513
aI11816
aI10619
aI16457
aI21687
aI36894
aI88597
aI95838
aI10619
aI21687
aI88597
aI16457
aI21687
aI36894
aI7731
aI58956
aI67929
aI7731
aI16052
aI16175
aI26158
aI12731
aI16457
aI36894
aI65276
aI67725
aI32296
aI12731
aI15173
aI21854
aI21901
aI62459
aI65276
aI81665
aI99937
aI15173
aI81665
aI16052
aI45465
aI70031
aI81129
aI11513
aI967
aI7731
aI17792
aI20222
aI27281
aI35698
aI40309
aI41900
aI44191
aI67214
aI89223
aI96733
aI10619
aI71260
aI5065
aI26187
aI31035
aI37884
aI41004
aI59784
aI13071
aI16175
aI16660
aI26158
aI26517
aI29718
aI29933
aI47228
aI50525
aI52461
aI61118
aI68762
aI80570
aI84712
aI93693
aI95960
aI16660
aI29933
aI45465
aI47228
aI47776
aI50525
aI59862
aI61118
aI63542
aI68762
aI70031
aI77830
aI84712
aI89486
aI90398
aI93693
aI94735
aI95960
aI19453
aI36894
aI46703
aI67725
aI80577
aI54926
aI99814
aI16457
aI36894
aI44196
aI67725
aI21901
aI99937
aI5415
aI22078
aI30255
aI61530
aI77772
aI81068
aI2515
aI2753
aI5605
aI20222
aI28344
aI34105
aI34605
aI56073
aI56661
aI2753
aI5605
aI6645
aI20222
aI21728
aI22771
aI28344
aI34105
aI34605
aI74568
aI75397
aI85326
aI18547
aI74568
aI77024
aI90437
aI34105
aI56073
aI2753
aI20222
aI34105
aI75397
aI85326
aI85683
aI90912
aI2680
aI16052
aI18968
aI29933
aI47228
aI47776
aI61118
aI68762
aI74636
aI78480
aI84712
aI93693
aI95960
aI6023
aI14198
aI31035
aI36492
aI37884
aI53684
aI29934
aI37631
aI66625
aI67725
aI85016
aI96534
aI16457
aI33670
aI36894
aI65043
aI90232
aI93408
aI98540
aI10619
aI10619
aI21687
aI90528
aI1267
aI71260
aI98540
aI21687
aI32296
aI62459
aI67725
aI68836
aI99937
aI16457
aI36894
aI67725
aI90232
aI96534
aI98540
aI7291
aI58978
aI26187
aI42626
aI4403
aI5065
aI6023
aI7669
aI31035
aI36064
aI36492
aI37884
aI53684
aI54926
aI59784
aI65303
aI89404
aI99814
aI39374
aI41900
aI44191
aI76466
aI90437
aI97724
aI5605
aI6645
aI12761
aI17792
aI20222
aI21728
aI22286
aI22771
aI25271
aI27281
aI28344
aI34105
aI34605
aI35698
aI39374
aI40309
aI41900
aI44191
aI52702
aI55943
aI67214
aI70574
aI71977
aI74258
aI74568
aI75397
aI76466
aI79596
aI85326
aI87453
aI89223
aI90619
aI94912
aI96733
aI97724
aI98870
aI2753
aI16660
aI18547
aI18968
aI29933
aI47776
aI50525
aI59862
aI63542
aI68762
aI93693
aI95960
aI5415
aI21854
aI58978
aI61618
aI81068
aI88817
aI5415
aI12731
aI21901
aI62459
aI65276
aI81068
aI99937
aI16457
aI24656
aI36894
aI68942
aI90232
aI98540
aI6085
aI6992
aI13124
aI16052
aI36268
aI45465
aI56111
aI82038
aI82315
aI16052
aI36268
aI45465
aI56111
aI82315
aI16660
aI29933
aI36268
aI47776
aI50525
aI59862
aI63542
aI68762
aI70031
aI84712
aI93693
aI95960
aI30255
aI36268
aI45465
aI46975
aI56111
aI70031
aI82038
aI93693
aI16660
aI18968
aI36268
aI45465
aI46975
aI50525
aI67822
aI68762
aI70031
aI77830
aI90398
aI93693
aI94735
aI95960
aI97668
aI5605
aI6645
aI20222
aI21728
aI22771
aI28344
aI34605
aI75397
aI49536
aI40635
aI4403
aI5065
aI6023
aI7669
aI15886
aI26187
aI31035
aI36064
aI36492
aI37884
aI41004
aI53684
aI59784
aI65303
aI69521
aI77365
aI7731
aI51477
aI7731
aI17792
aI22286
aI27281
aI35698
aI40309
aI55943
aI67214
aI67289
aI89223
aI90619
aI96733
aI12731
aI21901
aI62459
aI99937
aI76254
aI58956
aI58956
aI22286
aI33835
aI35698
aI39374
aI40309
aI41900
aI44191
aI55943
aI67214
aI90619
aI96733
aI97724
aI7291
aI15173
aI23516
aI32789
aI56113
aI67725
aI80577
aI81665
aI16457
aI90232
aI88597
aI2753
aI2753
aI5415
aI7291
aI12731
aI15173
aI21901
aI23516
aI27393
aI32789
aI56113
aI58978
aI61618
aI62459
aI81068
aI81665
aI99937
aI15173
aI23516
aI32789
aI56113
aI81665
aI10619
aI18547
aI26514
aI40309
aI41900
aI52702
aI57349
aI59006
aI74258
aI74568
aI89223
aI90437
aI94912
aI96733
a.