(lp0
I42351
aI15551
aI1329
aI9527
aI9883
aI24235
aI25414
aI26373
aI34168
aI49682
aI59159
aI70335
aI71441
aI73570
aI75436
aI76361
aI78445
aI82472
aI83320
aI89090
aI46209
aI52829
aI57186
aI70335
aI73570
aI76361
aI82472
aI88679
aI90079
aI10187
aI10953
aI13742
aI34791
aI87333
aI90108
aI8329
aI86838
aI8488
aI14741
aI43410
aI54240
aI57980
aI60280
aI66304
aI75027
aI83349
aI2146
aI3946
aI13965
aI23332
aI26696
aI34322
aI39133
aI43322
aI44169
aI54940
aI56848
aI61753
aI82121
aI87872
aI95000
aI10959
aI16877
aI50735
aI52830
aI56836
aI56894
aI63864
aI77134
aI81756
aI97985
aI1537
aI8044
aI14833
aI15571
aI16834
aI29031
aI33098
aI55304
aI58459
aI65428
aI71540
aI81702
aI88930
aI89415
aI90839
aI759
aI5838
aI6633
aI7795
aI13932
aI16499
aI18993
aI24325
aI27835
aI37416
aI37899
aI40554
aI41558
aI42200
aI48014
aI57612
aI60255
aI72639
aI74330
aI89139
aI95218
aI99360
aI1939
aI5611
aI22945
aI40103
aI64111
aI65764
aI90834
aI13430
aI32363
aI38316
aI48429
aI52294
aI59186
aI78022
aI89051
aI13698
aI18358
aI22958
aI49123
aI50222
aI56237
aI59184
aI69184
aI18080
aI19214
aI20705
aI25754
aI30580
aI50234
aI50692
aI71912
aI75332
aI89386
aI91609
aI98582
aI98589
aI349
aI14110
aI20314
aI20440
aI23803
aI25695
aI30895
aI32336
aI33760
aI35768
aI55263
aI57186
aI85814
aI94612
aI97128
aI5294
aI10081
aI14110
aI20314
aI20440
aI23803
aI25695
aI30518
aI43989
aI50402
aI52830
aI54295
aI63037
aI63952
aI85728
aI86900
aI1758
aI19329
aI29364
aI35768
aI73364
aI92047
aI44972
aI99394
aI79655
aI46209
aI48630
aI53771
aI71932
aI87321
aI88434
aI89745
aI90079
aI96210
aI57186
aI1537
aI6994
aI10077
aI29031
aI33098
aI65428
aI90839
aI3581
aI16177
aI36480
aI83240
aI2100
aI12428
aI38725
aI77742
aI775
aI33098
aI33899
aI39592
aI41714
aI55365
aI61062
aI65892
aI76639
aI48177
aI6021
aI70475
aI82881
aI56
aI5754
aI13381
aI13504
aI14977
aI18300
aI18468
aI18692
aI19595
aI21489
aI26065
aI29872
aI33359
aI36480
aI40264
aI53282
aI62935
aI63367
aI76349
aI77774
aI81261
aI83240
aI83851
aI92958
aI94889
aI56
aI2690
aI5754
aI14977
aI18468
aI20183
aI26065
aI29656
aI36480
aI40264
aI61147
aI63367
aI73526
aI76349
aI77179
aI81261
aI83240
aI83729
aI83851
aI92958
aI96275
aI97217
aI99070
aI21977
aI3278
aI5222
aI28347
aI9412
aI30291
aI48769
aI89073
aI89609
aI10959
aI16877
aI50735
aI52830
aI56836
aI56894
aI63864
aI77134
aI81756
aI97985
aI24995
aI53175
aI90719
aI92905
aI35764
aI53485
aI1537
aI6994
aI10077
aI26751
aI29031
aI33098
aI55035
aI65428
aI90839
aI1537
aI8044
aI14833
aI15571
aI16834
aI29031
aI33098
aI55304
aI58459
aI65428
aI71540
aI81702
aI88930
aI89415
aI90839
aI23689
aI87121
aI91528
aI38426
aI727
aI12658
aI15375
aI36302
aI51180
aI81943
aI81994
aI1537
aI10077
aI90839
aI1610
aI7076
aI10188
aI15042
aI15652
aI16417
aI16440
aI22945
aI28341
aI31390
aI31790
aI35061
aI35483
aI45107
aI54881
aI56504
aI56650
aI56792
aI59934
aI68373
aI74148
aI78454
aI84511
aI88111
aI90005
aI90387
aI91310
aI97217
aI98677
aI14741
aI75027
aI83349
aI126
aI35858
aI2583
aI6994
aI9474
aI25650
aI29031
aI33098
aI34914
aI43040
aI56053
aI68850
aI84214
aI84781
aI89415
aI92410
aI318
aI4517
aI4790
aI5176
aI10465
aI13263
aI14143
aI20205
aI20686
aI22761
aI27876
aI35804
aI37722
aI38688
aI41181
aI52627
aI53447
aI54496
aI55161
aI66628
aI67189
aI68170
aI69421
aI69771
aI72374
aI76939
aI77847
aI79384
aI81793
aI89181
aI89306
aI89911
aI92229
aI93376
aI93654
aI93956
aI95817
aI2146
aI3946
aI13965
aI23332
aI26696
aI34322
aI39133
aI43322
aI44169
aI54940
aI56848
aI61753
aI82121
aI87872
aI95000
aI20072
aI28171
aI45649
aI56380
aI89721
aI91427
aI95815
aI21950
aI35901
aI39099
aI45649
aI4950
aI13430
aI15460
aI26875
aI32363
aI38316
aI48429
aI50170
aI51059
aI52294
aI59186
aI73727
aI77953
aI78022
aI78986
aI79712
aI89051
aI6650
aI40498
aI53771
aI55263
aI57186
aI73329
aI94894
aI96210
aI8202
aI15042
aI20183
aI29656
aI74082
aI77179
aI83729
aI95079
aI96275
aI97217
aI99070
aI1928
aI23689
aI87121
aI91528
aI1928
aI23689
aI87121
aI2212
aI20606
aI32623
aI38944
aI48532
aI84841
aI89456
aI53687
aI24884
aI40450
aI79655
aI21977
aI81180
aI83625
aI14968
aI64864
aI13698
aI18358
aI22958
aI49123
aI50222
aI56237
aI59184
aI69184
aI9883
aI11617
aI17291
aI25414
aI28612
aI34168
aI37402
aI38767
aI49682
aI51571
aI61390
aI63213
aI69626
aI70335
aI71393
aI71441
aI73570
aI75436
aI77442
aI82472
aI84012
aI89090
aI5294
aI10081
aI14110
aI20314
aI20440
aI23803
aI25695
aI52830
aI63037
aI63952
aI77134
aI81756
aI86900
aI759
aI7795
aI16499
aI18993
aI27835
aI57612
aI60255
aI63938
aI74330
aI1659
aI5838
aI7795
aI13932
aI18993
aI24325
aI37416
aI37899
aI41558
aI42200
aI57612
aI60255
aI95218
aI99145
aI99360
aI55349
aI60078
aI99521
aI2325
aI4824
aI8833
aI17998
aI18076
aI24813
aI40713
aI60736
aI82627
aI96253
aI30291
aI6021
aI9907
aI13248
aI19772
aI38237
aI60407
aI78888
aI81943
aI83719
aI97000
aI4097
aI20705
aI1977
aI2380
aI6005
aI7815
aI11084
aI15133
aI18769
aI19628
aI30291
aI30504
aI31835
aI32271
aI36410
aI43859
aI46085
aI46183
aI48769
aI48875
aI53901
aI56942
aI57033
aI60423
aI64945
aI69941
aI70905
aI75677
aI76227
aI83603
aI83867
aI86411
aI89609
aI92679
aI92885
aI96085
aI97269
aI87
aI349
aI3463
aI15307
aI18178
aI19329
aI29364
aI32336
aI35768
aI36557
aI38704
aI56894
aI62524
aI73364
aI74007
aI84979
aI85814
aI87199
aI1758
aI19329
aI29364
aI35768
aI73364
aI92047
aI18599
aI4097
aI16792
aI20705
aI32443
aI35131
aI35962
aI50234
aI68122
aI69184
aI72571
aI75332
aI91609
aI95972
aI98582
aI19214
aI25754
aI30580
aI51118
aI71912
aI75332
aI91609
aI98582
aI98589
aI5981
aI6650
aI33654
aI40498
aI44273
aI57139
aI70335
aI71932
aI73329
aI73570
aI82472
aI90079
aI94894
aI29733
aI65764
aI78693
aI93501
aI1939
aI14777
aI19595
aI22945
aI36480
aI39578
aI40103
aI51285
aI53282
aI63367
aI76349
aI78693
aI81261
aI83851
aI90834
aI97321
aI4517
aI10465
aI13414
aI22917
aI27865
aI35678
aI41181
aI51728
aI63938
aI65387
aI68170
aI79192
aI79384
aI13414
aI26277
aI27865
aI51728
aI68170
aI75217
aI79384
aI727
aI4237
aI7478
aI12658
aI12924
aI15375
aI23133
aI34926
aI51180
aI51506
aI60407
aI78888
aI81994
aI96302
aI6021
aI34926
aI7545
aI5294
aI7545
aI10081
aI12651
aI13698
aI15307
aI19329
aI23803
aI25695
aI35768
aI36557
aI43989
aI50402
aI50474
aI50587
aI52830
aI54295
aI63037
aI68847
aI70473
aI73364
aI86900
aI87199
aI98636
aI15234
aI27681
aI58950
aI65714
aI67685
aI759
aI1659
aI5838
aI7795
aI8301
aI13932
aI24325
aI29456
aI37899
aI41558
aI42200
aI57612
aI99145
aI99360
aI21357
aI74801
aI74950
aI78523
aI90270
aI31407
aI44972
aI99394
aI47412
aI85113
aI79655
aI52627
aI69421
aI87
aI15307
aI18599
aI36557
aI6509
aI40704
aI5683
aI8208
aI14914
aI19304
aI48257
aI48801
aI52447
aI64201
aI75972
aI94745
aI95000
aI55263
aI68924
aI57224
aI23332
aI34322
aI39133
aI67377
aI18178
aI20440
aI30895
aI32336
aI33760
aI35768
aI37221
aI38704
aI43989
aI44273
aI55263
aI57186
aI62524
aI74007
aI86900
aI87199
aI94612
aI97128
aI23192
aI92047
aI1659
aI8301
aI23161
aI36026
aI37416
aI66320
aI81664
aI89139
aI89969
aI759
aI7795
aI8828
aI9220
aI9326
aI9474
aI34914
aI45472
aI49025
aI56372
aI73351
aI74330
aI75818
aI76392
aI79728
aI84214
aI87872
aI89306
aI93429
aI93654
aI759
aI7795
aI18993
aI42200
aI57612
aI60255
aI63938
aI74330
aI25754
aI30025
aI50221
aI71912
aI90724
aI4097
aI19214
aI20705
aI25754
aI50234
aI75332
aI91609
aI95972
aI98582
aI98589
aI4097
aI13698
aI90807
aI91609
aI95972
aI1659
aI5394
aI6633
aI8301
aI13932
aI16499
aI18993
aI24325
aI27835
aI37416
aI40554
aI41558
aI42200
aI42458
aI48014
aI58338
aI60255
aI66320
aI81479
aI81664
aI89139
aI95218
aI1659
aI6633
aI8301
aI13932
aI16499
aI18993
aI23161
aI27835
aI36026
aI37416
aI40554
aI41558
aI48014
aI66320
aI68972
aI81479
aI81664
aI89139
aI89969
aI91014
aI95218
aI12410
aI18080
aI19214
aI25754
aI26481
aI30025
aI33404
aI36949
aI38563
aI71912
aI75120
aI87245
aI90724
aI98341
aI9562
aI69315
aI689
aI7139
aI9357
aI10835
aI34052
aI44332
aI55263
aI63217
aI71024
aI81069
aI87824
aI18080
aI19214
aI20705
aI25754
aI30025
aI31771
aI50692
aI53981
aI71912
aI75332
aI80787
aI89386
aI90724
aI91609
aI98582
aI98589
aI18033
aI19329
aI43600
aI74195
aI84979
aI46209
aI48630
aI53771
aI89745
aI90079
aI96210
aI57186
aI65892
aI5176
aI8044
aI9264
aI14410
aI14686
aI15571
aI34894
aI35424
aI35531
aI38184
aI40836
aI58697
aI71540
aI73360
aI91295
aI93376
aI94768
aI8044
aI11927
aI14833
aI15571
aI34894
aI35424
aI35531
aI40836
aI55304
aI58459
aI71540
aI81702
aI88930
aI91295
aI1537
aI8044
aI10077
aI14833
aI15571
aI40836
aI55035
aI55304
aI58459
aI65428
aI66628
aI71540
aI81702
aI88930
aI90839
aI95817
aI71369
aI42351
aI55035
aI69161
aI1537
aI6994
aI10077
aI29031
aI33098
aI65428
aI90839
aI39302
aI4130
aI33331
aI38945
aI36480
aI83240
aI84976
aI6219
aI11393
aI58299
aI83313
aI1928
aI40113
aI33098
aI33899
aI39592
aI41714
aI57933
aI61062
aI65892
aI86893
aI78532
aI80149
aI75002
aI78532
aI82551
aI12924
aI28185
aI51506
aI55275
aI68673
aI78532
aI79426
aI81565
aI83625
aI29243
aI48177
aI38426
aI65568
aI71369
aI8497
aI12428
aI26772
aI34929
aI35446
aI37144
aI40244
aI47907
aI55575
aI89886
aI92879
aI48177
aI52186
aI10914
aI17498
aI18506
aI33277
aI30122
aI5981
aI6650
aI9883
aI24235
aI25414
aI26373
aI34168
aI38571
aI40498
aI59159
aI70335
aI71441
aI71932
aI73570
aI75436
aI76361
aI78445
aI82472
aI89090
aI90079
aI3959
aI30660
aI34653
aI38643
aI40694
aI41733
aI51886
aI57225
aI70517
aI77013
aI77344
aI78252
aI78760
aI79120
aI82363
aI83631
aI90240
aI97035
aI6021
aI70475
aI82881
aI13248
aI49738
aI50573
aI60407
aI65739
aI81994
aI52186
a.