(lp0
I27912
aI15148
aI20457
aI89941
aI14227
aI53218
aI55952
aI89524
aI5488
aI8914
aI9940
aI12317
aI15148
aI20457
aI31414
aI36887
aI39932
aI53016
aI53454
aI54093
aI68451
aI88508
aI89941
aI97515
aI99172
aI2184
aI7952
aI8914
aI9001
aI12714
aI13176
aI20457
aI21336
aI32950
aI32973
aI40331
aI42412
aI53251
aI56584
aI61616
aI62513
aI62536
aI65916
aI68687
aI87989
aI99172
aI60951
aI93574
aI27912
aI11926
aI27197
aI64732
aI26279
aI40375
aI755
aI11654
aI13210
aI13334
aI15868
aI17284
aI21389
aI23512
aI25778
aI27197
aI29654
aI29776
aI37311
aI39991
aI42118
aI42864
aI55129
aI58794
aI62449
aI62569
aI68770
aI69071
aI77224
aI93270
aI93574
aI15148
aI20457
aI89941
aI20457
aI26279
aI39932
aI40375
aI53016
aI99172
aI5488
aI15148
aI36887
aI38658
aI39932
aI53016
aI53454
aI5488
aI8914
aI20457
aI21336
aI39932
aI40331
aI53016
aI99172
aI60951
aI2184
aI7952
aI11435
aI13261
aI14272
aI18372
aI24310
aI27912
aI32950
aI32973
aI40375
aI41071
aI49010
aI53251
aI62513
aI62536
aI87946
aI87989
aI20019
aI73
aI11654
aI44959
aI48091
aI50106
aI69071
aI73134
aI48091
aI69071
aI44959
aI845
aI1808
aI7977
aI11435
aI12714
aI14272
aI19035
aI24310
aI35921
aI41071
aI44421
aI49010
aI53251
aI66208
aI73208
aI74926
aI80204
aI92874
aI455
aI13334
aI39991
aI43545
aI44809
aI53218
aI55952
aI76981
aI7952
aI9001
aI11702
aI15757
aI18372
aI20457
aI26119
aI32973
aI40375
aI48149
aI53251
aI62513
aI62536
aI87946
aI87989
aI99172
aI14227
aI20061
aI29277
aI68261
aI73208
aI71185
aI25928
aI52183
aI58752
aI71185
aI82520
aI19184
aI71185
aI82520
aI14227
aI27275
aI51067
aI87555
aI7574
aI14227
aI27713
aI40125
aI53218
aI55952
aI89524
a.