(lp0
I12250
aI38650
aI42577
aI54788
aI64306
aI69737
aI79863
aI80246
aI82565
aI94717
aI12250
aI14152
aI17182
aI19317
aI22192
aI23348
aI27000
aI29626
aI32021
aI33051
aI33531
aI38054
aI38650
aI41047
aI42577
aI45558
aI47419
aI47537
aI47542
aI47692
aI48804
aI53237
aI54788
aI55602
aI61499
aI64306
aI66995
aI67969
aI69737
aI76446
aI76463
aI78293
aI79863
aI80246
aI80991
aI84585
aI87738
aI90596
aI92227
aI94175
aI94717
aI15273
aI15532
aI36598
aI58417
aI12250
aI12250
aI42577
aI47692
aI21083
aI6316
aI14152
aI22192
aI33531
aI38650
aI41047
aI61499
aI64306
aI66995
aI67969
aI78293
aI80246
aI84585
aI87738
aI94175
aI15532
aI36598
aI58417
aI82341
aI3313
aI14152
aI14517
aI17182
aI19317
aI21109
aI22192
aI23348
aI23410
aI32021
aI33051
aI38650
aI41047
aI42083
aI42577
aI50508
aI53237
aI54788
aI61499
aI64306
aI66995
aI67969
aI69737
aI70388
aI78293
aI79060
aI79863
aI80246
aI80991
aI83654
aI84585
aI87738
aI90596
aI94175
aI94308
aI94635
aI2747
aI3313
aI3334
aI6316
aI11338
aI14152
aI14517
aI15650
aI15854
aI17182
aI18049
aI19317
aI21109
aI22192
aI23348
aI23410
aI27000
aI29626
aI32021
aI33051
aI33531
aI34663
aI36956
aI38054
aI38650
aI39365
aI41047
aI42083
aI42577
aI45558
aI47419
aI47537
aI47692
aI48804
aI50508
aI53237
aI54788
aI55602
aI61499
aI63237
aI64306
aI66995
aI67969
aI69737
aI70388
aI72766
aI76446
aI76463
aI78293
aI79060
aI79863
aI80246
aI80712
aI80991
aI83654
aI84585
aI87738
aI90596
aI92227
aI94175
aI94308
aI94635
aI97986
aI15273
aI7425
aI15273
aI15532
aI58417
aI5476
aI82784
aI5476
aI85
aI2747
aI11338
aI12250
aI14152
aI14517
aI15650
aI15854
aI17182
aI19317
aI22192
aI23348
aI23410
aI32021
aI33051
aI33531
aI33892
aI36956
aI38054
aI38650
aI41047
aI42083
aI42577
aI48804
aI53237
aI54788
aI60594
aI61499
aI64306
aI66995
aI67969
aI69737
aI70388
aI72766
aI78293
aI79060
aI79863
aI80246
aI80991
aI84585
aI87738
aI90596
aI94175
aI94308
aI14791
aI15273
aI23001
aI77687
aI78262
aI7122
aI20009
aI46180
aI2747
aI3313
aI3334
aI5226
aI7122
aI11338
aI14152
aI14517
aI15650
aI15854
aI17182
aI19317
aI20009
aI21109
aI22192
aI23348
aI23410
aI28752
aI32021
aI33051
aI33531
aI33892
aI34663
aI36956
aI38054
aI38866
aI39365
aI41047
aI42083
aI42423
aI45972
aI46180
aI47419
aI48804
aI50508
aI53237
aI61499
aI62081
aI63237
aI66995
aI67969
aI69737
aI70388
aI72766
aI77338
aI78293
aI79060
aI80712
aI80991
aI83654
aI84585
aI87216
aI87738
aI88551
aI90596
aI94175
aI94308
aI97986
aI14791
aI23001
aI26235
aI28622
aI37310
aI38213
aI38947
aI45950
aI46161
aI48661
aI56040
aI69686
aI71256
aI77687
aI78262
aI84896
aI87783
aI96050
aI5476
aI34290
aI72072
aI76463
aI97226
aI4914
aI11052
aI25400
aI12250
aI2747
aI3313
aI3334
aI5226
aI11338
aI14517
aI15650
aI15854
aI17182
aI28752
aI33051
aI33892
aI36956
aI38866
aI39365
aI42083
aI42423
aI45972
aI50508
aI62081
aI63237
aI64306
aI70388
aI72766
aI77338
aI79060
aI80991
aI83654
aI84585
aI87216
aI88551
aI94308
aI94635
aI2747
aI3313
aI3334
aI5226
aI8278
aI11338
aI12250
aI14152
aI14517
aI15650
aI15854
aI17182
aI19317
aI21109
aI22192
aI23348
aI23410
aI27000
aI28752
aI32021
aI33051
aI33531
aI33892
aI36956
aI38054
aI38650
aI38866
aI39365
aI41047
aI42083
aI42423
aI42577
aI45972
aI47537
aI47692
aI48804
aI50508
aI53237
aI54788
aI60594
aI61499
aI62081
aI63237
aI64306
aI66995
aI67969
aI69737
aI70388
aI72766
aI77338
aI78293
aI79060
aI79863
aI80246
aI80991
aI83654
aI84585
aI87216
aI87738
aI88551
aI90596
aI94175
aI94308
aI94635
aI5476
aI12250
aI38650
aI42577
aI47692
aI54788
aI60594
aI61499
aI64306
aI76463
aI77338
aI79863
aI80246
aI2747
aI3313
aI3334
aI5089
aI5226
aI8278
aI11338
aI14152
aI14517
aI15650
aI15854
aI17182
aI17945
aI18049
aI19317
aI21109
aI22192
aI23348
aI23410
aI27000
aI28752
aI29626
aI32021
aI33051
aI33531
aI33892
aI34290
aI36956
aI38054
aI38650
aI38866
aI39365
aI41047
aI42083
aI42423
aI42577
aI45558
aI45972
aI47537
aI47692
aI48804
aI50508
aI50913
aI53237
aI54788
aI55602
aI60594
aI61499
aI62081
aI63237
aI64306
aI66995
aI67969
aI69496
aI69737
aI70388
aI72766
aI76446
aI76463
aI77338
aI78293
aI79060
aI79863
aI80246
aI80712
aI80991
aI83654
aI84585
aI87216
aI87738
aI88551
aI90596
aI92227
aI94175
aI94308
aI94635
aI4535
aI5762
aI21083
aI36347
aI82784
aI4535
aI21083
aI36347
aI82784
aI21083
aI36347
aI42773
aI82784
aI5476
aI11708
aI34290
aI66164
aI72072
aI76463
aI78491
aI97226
aI11708
aI34290
aI52747
aI66164
aI68057
aI72072
aI78491
aI4914
aI6402
aI11037
aI11052
aI12146
aI28708
aI44340
aI53823
aI65371
aI65715
aI6402
aI11037
aI28708
aI44340
aI47839
aI53823
aI65371
aI65715
aI21083
aI21083
aI53191
aI97226
aI4914
aI25400
aI14152
aI17182
aI19317
aI23348
aI27000
aI32021
aI33051
aI38650
aI41047
aI42577
aI47692
aI53237
aI54788
aI61499
aI64306
aI66995
aI69737
aI79863
aI80246
aI84585
aI90596
aI94175
aI94717
aI6316
aI14152
aI17182
aI19317
aI22192
aI23348
aI23410
aI27000
aI32021
aI33051
aI33531
aI34663
aI38054
aI38650
aI41047
aI42577
aI47692
aI48804
aI53237
aI54788
aI61499
aI64306
aI66995
aI67969
aI69737
aI78293
aI79863
aI80246
aI80991
aI84585
aI87738
aI90596
aI94175
aI97986
aI15273
aI7122
aI20009
aI46180
aI7122
aI20009
aI34663
aI46180
aI97986
aI6316
aI12325
aI14152
aI17182
aI19317
aI22192
aI23348
aI23410
aI27000
aI29626
aI32021
aI33051
aI33531
aI38054
aI38650
aI41047
aI42577
aI47537
aI47542
aI47692
aI48804
aI53237
aI54788
aI61499
aI64306
aI66995
aI67969
aI69737
aI76446
aI78293
aI79863
aI80246
aI80991
aI84585
aI87738
aI90596
aI92227
aI94175
aI94717
aI15273
aI15532
aI36598
aI58417
aI5476
aI22830
aI97226
aI82341
aI4914
aI11052
aI25400
aI82341
aI11708
aI22830
aI34290
aI72072
aI76463
aI78491
aI97226
aI4360
aI11708
aI20412
aI34290
aI52747
aI68057
aI72072
aI76463
aI78491
aI97226
aI4914
aI11052
aI12146
aI28708
aI44340
aI53823
aI65371
aI82341
aI4914
aI6402
aI8598
aI11037
aI11052
aI12066
aI12146
aI25400
aI28708
aI44340
aI47839
aI53823
aI65371
aI65715
aI95659
aI41140
aI14152
aI17182
aI18049
aI19317
aI22192
aI23348
aI23410
aI32021
aI33051
aI38054
aI41047
aI48804
aI53237
aI64306
aI66995
aI69737
aI78293
aI80991
aI84585
aI90596
aI94175
aI18049
aI46717
aI52747
aI92015
aI15273
aI7425
aI2754
aI11708
aI20412
aI34290
aI52747
aI66164
aI68057
aI72072
aI76463
aI78491
aI80965
aI97226
aI2754
aI11708
aI20412
aI34290
aI52747
aI60863
aI66164
aI68057
aI72072
aI78491
aI80965
aI4914
aI6402
aI11037
aI11052
aI12066
aI12146
aI28708
aI44340
aI47839
aI53823
aI65371
aI65715
aI95659
aI6402
aI11037
aI12066
aI12146
aI28708
aI44340
aI47839
aI53823
aI65371
aI65715
aI95659
aI42577
aI6316
aI12325
aI14152
aI17182
aI19317
aI22192
aI32021
aI33051
aI33531
aI38054
aI38650
aI41047
aI42577
aI48804
aI53237
aI54788
aI61499
aI64306
aI66995
aI67969
aI69737
aI76463
aI78293
aI79863
aI80246
aI80991
aI84585
aI87738
aI90596
aI94175
aI94717
aI15532
aI36598
aI58417
aI82341
aI4535
aI21083
aI82784
aI21083
aI82784
aI6550
aI14680
aI19249
aI53191
aI53907
aI57164
aI79926
aI84071
aI85597
aI96806
aI6550
aI14680
aI19249
aI53191
aI53907
aI57164
aI84071
aI85597
aI22830
aI5405
aI5476
aI41140
aI34290
aI72072
aI76463
aI16674
aI18478
aI48071
aI76621
aI88231
aI2747
aI3313
aI3334
aI5226
aI11338
aI12250
aI14152
aI14517
aI15650
aI15854
aI17182
aI19317
aI21109
aI22192
aI23348
aI23410
aI32021
aI33051
aI33531
aI33892
aI36956
aI38054
aI38650
aI39365
aI41047
aI42083
aI42423
aI42577
aI45972
aI47419
aI48804
aI50508
aI53237
aI54788
aI60594
aI61499
aI62081
aI63237
aI64306
aI66995
aI67969
aI69737
aI70388
aI72766
aI77338
aI78293
aI79060
aI79863
aI80246
aI80991
aI83654
aI84585
aI87216
aI87738
aI88551
aI90596
aI94175
aI94308
aI94635
aI2747
aI3313
aI5089
aI5226
aI5740
aI8278
aI11338
aI11835
aI12250
aI14517
aI14791
aI15650
aI15854
aI17945
aI21109
aI21567
aI23001
aI23348
aI26235
aI27230
aI28622
aI28752
aI29626
aI36956
aI37310
aI38213
aI38947
aI39365
aI40899
aI42083
aI42423
aI45558
aI45950
aI46161
aI47537
aI48661
aI50508
aI50913
aI53129
aI56040
aI62081
aI69496
aI69686
aI70388
aI70842
aI71256
aI72766
aI76446
aI77687
aI78262
aI79060
aI83654
aI84896
aI86842
aI87216
aI87783
aI88551
aI92227
aI94308
aI94635
aI96050
aI5476
aI12250
aI42577
aI38650
aI42577
aI47692
aI5405
aI5476
aI5405
aI5405
aI62577
aI12250
aI38650
aI42577
aI47692
aI5476
aI7122
aI20009
aI46180
aI20009
aI34663
aI46180
aI97986
aI22830
aI82341
aI6316
aI36598
aI82341
aI41140
aI2754
aI41140
aI4914
aI4914
aI8598
aI25400
aI73544
aI5476
aI5476
aI5476
aI21083
aI82784
aI2747
aI6316
aI11338
aI14152
aI22192
aI22830
aI32021
aI33531
aI34290
aI38054
aI39365
aI41047
aI45558
aI47537
aI48804
aI61499
aI64306
aI66164
aI66995
aI69737
aI76446
aI76463
aI78293
aI78491
aI79863
aI80246
aI87738
aI92227
aI94175
aI97226
aI11052
aI36347
aI82784
aI6550
aI14680
aI53191
aI53907
aI57164
aI79926
aI84071
aI6316
aI34290
aI76463
aI79481
aI25400
aI36598
aI2754
aI4360
aI11708
aI15751
aI20412
aI53298
aI57198
aI60863
aI68057
aI72072
aI76621
aI78491
aI89725
aI93760
aI96587
aI4360
aI11708
aI15751
aI20412
aI27493
aI32783
aI45775
aI48896
aI52747
aI53298
aI57198
aI60863
aI68057
aI72072
aI76621
aI78491
aI82441
aI89725
aI93760
aI96587
aI39319
aI62215
aI67021
aI87860
aI44340
aI47839
aI65371
aI82565
aI12250
aI42577
aI47692
aI82565
aI7122
aI34663
aI46180
aI97986
aI2747
aI3313
aI5089
aI5740
aI8278
aI11338
aI11835
aI14152
aI14517
aI14791
aI15650
aI17945
aI18049
aI19317
aI21109
aI21567
aI23348
aI26235
aI27000
aI28622
aI29626
aI32021
aI34663
aI37310
aI38054
aI38213
aI38947
aI39365
aI40899
aI41047
aI42083
aI45558
aI45950
aI47537
aI50508
aI50913
aI53129
aI53237
aI54788
aI55602
aI56040
aI61499
aI69496
aI69686
aI69737
aI70388
aI71256
aI72766
aI76446
aI78262
aI78293
aI79060
aI79863
aI80712
aI80991
aI86842
aI87216
aI87738
aI87783
aI88551
aI90332
aI92227
aI94308
aI94635
aI97986
aI7425
aI15273
aI15532
aI36598
aI58417
aI12250
aI47692
aI54788
aI70842
aI79863
aI11835
aI12250
aI14152
aI17945
aI19317
aI21567
aI23348
aI27000
aI28622
aI29626
aI32021
aI38054
aI40899
aI41047
aI45558
aI47537
aI47692
aI50913
aI53129
aI54788
aI55602
aI56040
aI61499
aI69496
aI69686
aI69737
aI70842
aI76446
aI78293
aI79863
aI86842
aI87738
aI87783
aI92227
aI15273
aI15532
aI36598
aI58417
aI11835
aI12250
aI14152
aI19317
aI23348
aI32021
aI41047
aI42423
aI47692
aI53237
aI54788
aI60594
aI61499
aI69737
aI70388
aI70842
aI77338
aI78293
aI79060
aI79863
aI83654
aI87738
aI94635
aI2747
aI3313
aI3334
aI5089
aI5226
aI5740
aI8278
aI11338
aI11835
aI12250
aI14152
aI14517
aI15650
aI15854
aI17945
aI18049
aI19317
aI21109
aI21567
aI23348
aI26235
aI27000
aI28622
aI28752
aI29626
aI32021
aI33892
aI36956
aI38213
aI38866
aI38947
aI39365
aI40899
aI41047
aI42083
aI42423
aI45558
aI45950
aI45972
aI47537
aI47692
aI50508
aI50913
aI53237
aI54788
aI55602
aI56040
aI60594
aI61499
aI62081
aI63237
aI69496
aI69737
aI70388
aI70842
aI72766
aI76446
aI77338
aI78293
aI79060
aI79863
aI80712
aI80991
aI83654
aI87216
aI87738
aI88551
aI90332
aI92227
aI94308
aI94635
aI23001
aI27230
aI46161
aI71256
aI2747
aI3313
aI5089
aI5226
aI5740
aI8278
aI9891
aI11338
aI11835
aI12250
aI14517
aI14791
aI15650
aI15854
aI16674
aI17945
aI18478
aI21109
aI21567
aI23001
aI23348
aI26235
aI27230
aI28622
aI28752
aI36956
aI37310
aI38213
aI38866
aI38947
aI39365
aI40899
aI42083
aI42423
aI45558
aI45950
aI45972
aI46161
aI47537
aI48071
aI48661
aI50508
aI50913
aI53129
aI55602
aI56040
aI62081
aI63237
aI69496
aI69686
aI70388
aI70842
aI71256
aI72766
aI76446
aI77338
aI77687
aI78262
aI79060
aI80712
aI83654
aI84896
aI86842
aI87216
aI87783
aI88551
aI90332
aI92227
aI94308
aI94635
aI96050
aI41140
aI97226
aI2754
aI11708
aI16674
aI41140
aI72072
aI76621
aI78491
aI88231
aI89078
aI96587
aI97226
aI4914
aI11052
aI4914
aI11052
aI12066
aI12146
aI25400
aI44340
aI49300
aI53823
aI73544
aI53653
aI5476
aI5476
aI5476
aI41140
aI97226
aI4914
aI25400
aI41140
aI2754
aI4621
aI15751
aI16674
aI20412
aI41140
aI57616
aI72072
aI76621
aI88231
aI93760
aI96587
aI4914
aI25400
aI8598
aI18478
aI25286
aI25400
aI38429
aI44437
aI48071
aI49300
aI15831
aI53653
aI7122
aI20009
aI46180
aI2747
aI3313
aI5089
aI5226
aI5740
aI7122
aI11338
aI14517
aI15650
aI17182
aI17945
aI19317
aI20009
aI21109
aI21567
aI22192
aI23348
aI23410
aI26235
aI27000
aI28622
aI28752
aI29626
aI33051
aI34663
aI36956
aI38054
aI38213
aI38866
aI39365
aI40899
aI42083
aI42423
aI45558
aI45972
aI46180
aI47537
aI48804
aI50508
aI50913
aI53237
aI56040
aI62081
aI63237
aI67969
aI69496
aI70842
aI72766
aI76446
aI79060
aI80712
aI80991
aI83654
aI87216
aI88551
aI90596
aI92227
aI94308
aI97986
aI7425
aI15273
aI15532
aI2747
aI3313
aI5226
aI5740
aI8278
aI11338
aI11835
aI12250
aI14152
aI14517
aI15650
aI15854
aI17182
aI17945
aI19317
aI21109
aI21567
aI22192
aI23348
aI23410
aI26235
aI27000
aI28622
aI29626
aI32021
aI33051
aI33531
aI36956
aI37310
aI38054
aI38213
aI38866
aI38947
aI40899
aI41047
aI42083
aI42423
aI42577
aI45558
aI45950
aI45972
aI47537
aI47692
aI48804
aI50508
aI53129
aI53237
aI54788
aI56040
aI61499
aI62081
aI64306
aI66995
aI69496
aI69686
aI69737
aI70388
aI70842
aI71256
aI72766
aI76446
aI77338
aI78262
aI78293
aI79060
aI79863
aI80246
aI80991
aI83654
aI84585
aI86842
aI87216
aI87738
aI87783
aI88551
aI90596
aI92227
aI94175
aI94308
aI94635
aI2714
aI2747
aI3313
aI5089
aI5226
aI5740
aI8278
aI11338
aI11835
aI12250
aI14152
aI14517
aI15650
aI15854
aI16674
aI17182
aI17945
aI18049
aI19317
aI21109
aI21567
aI22192
aI23348
aI23410
aI26235
aI27000
aI28622
aI28752
aI29626
aI32021
aI33051
aI33531
aI34663
aI36956
aI37310
aI38054
aI38213
aI38866
aI38947
aI39365
aI40899
aI41047
aI42083
aI42423
aI45558
aI45950
aI45972
aI47537
aI47692
aI48804
aI50508
aI50913
aI53129
aI53237
aI54788
aI55602
aI56040
aI61499
aI62081
aI63237
aI64306
aI66995
aI69496
aI69686
aI69737
aI70388
aI70842
aI71256
aI72766
aI76446
aI76463
aI77338
aI78262
aI78293
aI78491
aI79060
aI79863
aI80246
aI80712
aI80991
aI83654
aI84585
aI86842
aI87216
aI87738
aI87783
aI88551
aI90332
aI90596
aI92227
aI94175
aI94308
aI94635
aI97986
aI15273
aI15532
aI58417
aI7425
aI15273
aI15532
aI58417
aI2922
aI42773
aI82784
aI5476
aI12250
aI38650
aI42577
aI47692
aI54788
aI60594
aI2747
aI3313
aI3334
aI5226
aI5740
aI8278
aI11338
aI11835
aI14152
aI14517
aI15650
aI15854
aI17182
aI17945
aI19317
aI21109
aI23348
aI23410
aI26235
aI27000
aI29626
aI32021
aI33051
aI36956
aI38054
aI38213
aI38650
aI38866
aI38947
aI39365
aI40899
aI41047
aI42083
aI42423
aI42577
aI45558
aI45972
aI47537
aI47692
aI50508
aI50913
aI53237
aI54788
aI55602
aI56040
aI60594
aI61499
aI62081
aI63237
aI64306
aI66995
aI69496
aI69737
aI70388
aI72766
aI76446
aI77338
aI78293
aI79060
aI79863
aI80246
aI80991
aI83654
aI84585
aI87216
aI87738
aI88551
aI90332
aI90596
aI92227
aI94308
aI94635
aI15273
aI15532
aI7122
aI20009
aI46180
aI3313
aI5226
aI11338
aI14517
aI15650
aI20009
aI21109
aI28752
aI33892
aI36956
aI38866
aI42083
aI42423
aI45972
aI46180
aI50508
aI63237
aI70388
aI72766
aI79060
aI80991
aI83654
aI87216
aI88551
aI94308
aI94635
aI21083
aI5226
aI12250
aI14152
aI14517
aI32021
aI41047
aI60594
aI61499
aI69737
aI77338
aI80991
aI87738
aI94635
aI21083
aI42773
aI54004
aI82784
aI21083
aI12250
aI38650
aI42577
aI12250
aI2747
aI3313
aI5089
aI5740
aI6316
aI8278
aI11338
aI11835
aI12250
aI14152
aI14517
aI15650
aI17182
aI17945
aI19317
aI21109
aI21567
aI23348
aI23410
aI26235
aI27000
aI28622
aI29626
aI32021
aI33051
aI33531
aI38054
aI38213
aI39365
aI40899
aI41047
aI42083
aI45558
aI45950
aI47537
aI47542
aI47692
aI48804
aI50913
aI53129
aI53237
aI54788
aI56040
aI61499
aI64306
aI66995
aI69496
aI69686
aI69737
aI70388
aI70842
aI72766
aI76446
aI78293
aI79060
aI79863
aI80991
aI84585
aI86842
aI87738
aI87783
aI90596
aI92227
aI94175
aI94308
aI94635
aI94717
aI15273
aI15532
aI58417
aI5476
aI22830
aI41140
aI97226
aI11708
aI15751
aI16674
aI20412
aI22830
aI41140
aI72072
aI76463
aI76621
aI78491
aI88231
aI93760
aI96587
aI97226
aI4914
aI11052
aI82341
aI4914
aI8598
aI11037
aI11052
aI12146
aI18478
aI25400
aI28708
aI44340
aI49300
aI53823
aI65371
aI82341
aI42773
aI56331
aI82784
aI6550
aI14680
aI19249
aI53191
aI57164
aI79926
aI84071
aI85597
aI96806
aI82341
aI20909
aI33245
aI2754
aI2990
aI45568
aI89078
aI12066
aI73544
aI53191
aI53191
aI22830
aI2747
aI5226
aI8278
aI11338
aI11835
aI14152
aI14517
aI15650
aI15854
aI17945
aI21567
aI22192
aI22830
aI32021
aI33531
aI34290
aI36956
aI38054
aI39365
aI41047
aI42083
aI45558
aI45972
aI47537
aI48804
aI50508
aI61499
aI62081
aI63237
aI66995
aI72072
aI72766
aI76446
aI76463
aI78293
aI78491
aI79060
aI87216
aI87738
aI88231
aI88551
aI92227
aI94175
aI94635
aI97226
aI82341
aI4914
aI8598
aI11052
aI12146
aI15532
aI18478
aI25400
aI44340
aI53823
aI58417
aI82341
aI16674
aI79481
aI97226
aI2754
aI11708
aI15751
aI16674
aI20412
aI72072
aI76621
aI78491
aI79481
aI88231
aI89078
aI96587
aI97226
aI4914
aI11052
aI12146
aI4914
aI6402
aI11037
aI11052
aI12066
aI12146
aI28708
aI41053
aI44340
aI53823
aI65371
aI65715
aI73544
aI85668
aI17376
aI22830
aI2848
aI4621
aI7068
aI9212
aI11708
aI15751
aI16674
aI20412
aI22830
aI26922
aI32783
aI37346
aI45775
aI48896
aI52747
aI53298
aI57198
aI57616
aI60863
aI68057
aI72072
aI76621
aI78491
aI82441
aI88231
aI89725
aI93760
aI96587
aI11052
aI12146
aI6402
aI8598
aI11037
aI11052
aI12146
aI28708
aI44340
aI47839
aI49300
aI53823
aI65371
aI65715
aI95659
aI8278
aI11835
aI14152
aI17945
aI19317
aI21567
aI23348
aI27000
aI29626
aI32021
aI38054
aI41047
aI45558
aI47537
aI50913
aI53129
aI54788
aI61499
aI69496
aI69737
aI76446
aI78293
aI79863
aI86842
aI87738
aI87783
aI92227
aI15532
aI36598
aI58417
aI7122
aI46180
aI3313
aI17945
aI21109
aI22192
aI23348
aI23410
aI38866
aI38947
aI46180
aI50913
aI70842
aI80991
aI87783
aI88551
aI94308
aI97986
aI53653
aI5476
aI53653
aI4535
aI11967
aI17456
aI36347
aI46977
aI59469
aI65393
aI67723
aI81088
aI83595
aI4535
aI14599
aI36347
aI67723
aI82784
aI7678
aI37995
aI79926
aI85597
aI91433
aI6550
aI14680
aI19249
aI37995
aI57164
aI70282
aI79926
aI84071
aI85597
aI96806
aI41140
aI22830
aI97226
aI2754
aI4621
aI11708
aI15751
aI20412
aI22830
aI34290
aI57198
aI57616
aI72072
aI76621
aI78491
aI82441
aI88231
aI89725
aI93760
aI96587
aI4914
aI11052
aI6402
aI8598
aI11037
aI11052
aI12146
aI28708
aI44340
aI53823
aI65371
aI65715
aI73544
aI95659
aI5740
aI14152
aI17182
aI19317
aI23348
aI27000
aI29626
aI32021
aI33051
aI38650
aI42577
aI47692
aI53237
aI54788
aI61499
aI64306
aI66995
aI69737
aI70388
aI70842
aI77338
aI79863
aI80246
aI82565
aI83654
aI84585
aI90596
aI94175
aI2714
aI2747
aI3313
aI3334
aI5089
aI5226
aI5740
aI8278
aI11338
aI11835
aI14152
aI14517
aI15650
aI15854
aI17182
aI17945
aI18049
aI19317
aI21109
aI22192
aI23348
aI23410
aI26235
aI27000
aI28752
aI29626
aI32021
aI33051
aI33531
aI33892
aI34663
aI36956
aI38054
aI38213
aI38650
aI38866
aI39365
aI41047
aI42083
aI42423
aI42577
aI45558
aI45972
aI47419
aI47537
aI47692
aI48804
aI50508
aI50913
aI53237
aI54788
aI55602
aI60594
aI61499
aI62081
aI63237
aI64306
aI66995
aI67969
aI69496
aI69737
aI70388
aI72766
aI76446
aI77338
aI78293
aI79060
aI79863
aI80246
aI80712
aI80991
aI83654
aI84585
aI87216
aI87738
aI88551
aI90332
aI90596
aI92227
aI94175
aI94308
aI97986
aI78262
aI3313
aI5089
aI5740
aI7425
aI8278
aI14791
aI15650
aI17945
aI21109
aI21567
aI23001
aI26235
aI27230
aI28622
aI28752
aI37310
aI38213
aI38947
aI39365
aI40899
aI45558
aI45950
aI46161
aI47537
aI48661
aI50913
aI53129
aI55602
aI56040
aI62081
aI69496
aI69686
aI70388
aI71256
aI72766
aI76446
aI77687
aI78262
aI79060
aI84896
aI86842
aI87216
aI87783
aI90332
aI92227
aI94308
aI96050
aI41140
aI97226
aI11052
aI12250
aI42577
aI47692
aI2747
aI3313
aI5226
aI5740
aI6316
aI8278
aI11338
aI11835
aI12250
aI14152
aI14517
aI15650
aI15854
aI17182
aI17945
aI19317
aI21109
aI21567
aI22192
aI23348
aI23410
aI26235
aI27000
aI28622
aI29626
aI32021
aI33051
aI33531
aI36956
aI38054
aI38213
aI38650
aI38866
aI39365
aI40899
aI41047
aI42083
aI42423
aI42577
aI45558
aI45950
aI45972
aI47537
aI47692
aI48804
aI50508
aI53129
aI53237
aI54788
aI56040
aI61499
aI62081
aI64306
aI66995
aI69496
aI69686
aI69737
aI70388
aI70842
aI72766
aI76446
aI77338
aI78293
aI79060
aI79863
aI80246
aI80991
aI83654
aI84585
aI86842
aI87216
aI87738
aI87783
aI88551
aI90596
aI92227
aI94175
aI94308
aI94635
aI5476
aI5476
aI2754
aI2990
aI2754
aI2990
aI49411
aI73544
aI12066
aI73544
aI2754
aI45568
aI8598
aI12066
aI73544
aI17376
aI5226
aI17376
aI17945
aI33892
aI36956
aI39365
aI45558
aI45972
aI50508
aI62081
aI63237
aI76446
aI88551
aI15532
aI22830
aI8598
aI11052
aI82341
aI20009
aI46180
aI70842
aI2714
aI2747
aI3313
aI5089
aI5226
aI5740
aI6316
aI8278
aI11338
aI11835
aI14152
aI14517
aI15650
aI15854
aI17182
aI17945
aI18049
aI19317
aI20009
aI21109
aI21567
aI22192
aI23348
aI23410
aI26235
aI27000
aI28622
aI28752
aI29626
aI32021
aI33051
aI33531
aI34663
aI36956
aI38054
aI38213
aI38866
aI38947
aI39365
aI40899
aI41047
aI42083
aI42423
aI45558
aI45950
aI45972
aI47419
aI47537
aI47542
aI48804
aI50508
aI50913
aI53129
aI53237
aI54788
aI56040
aI61499
aI62081
aI63237
aI64306
aI66995
aI69496
aI69686
aI69737
aI70388
aI72766
aI76446
aI77338
aI78293
aI79060
aI79863
aI80246
aI80712
aI80991
aI83654
aI84585
aI86842
aI87216
aI87738
aI87783
aI88551
aI90596
aI92227
aI94175
aI94308
aI94635
aI97986
aI15273
aI15532
aI58417
aI1541
aI2156
aI4535
aI11967
aI17456
aI19875
aI36763
aI42773
aI45171
aI46977
aI59469
aI62909
aI65393
aI66580
aI67723
aI81088
aI82784
aI83595
aI99059
aI4535
aI5476
aI42773
aI82784
aI8164
aI14092
aI43385
aI48707
aI53521
aI53990
aI89377
aI93321
a.