(lp0
I4078
aI5746
aI7194
aI7548
aI12690
aI16903
aI17440
aI26486
aI28180
aI34147
aI51024
aI83127
aI47159
aI17395
aI18708
aI24888
aI27174
aI31482
aI32794
aI34142
aI35348
aI38583
aI58318
aI67412
aI67796
aI69547
aI74028
aI75694
aI88377
aI94563
aI97728
aI4333
aI47159
aI1567
aI49437
aI1567
aI5537
aI31808
aI38682
aI47159
aI49188
aI52825
aI60727
aI94621
aI40468
aI69547
aI19041
aI50846
aI60826
aI67253
aI84553
aI38310
aI99287
aI34147
aI4333
aI1567
aI52825
aI92606
aI4333
aI52825
aI60727
aI5746
aI7194
aI7548
aI12690
aI16903
aI17395
aI17440
aI26486
aI28180
aI32794
aI34147
aI38583
aI39512
aI51024
aI51942
aI52689
aI53234
aI53514
aI57792
aI59002
aI63305
aI68029
aI70526
aI80103
aI83127
aI86918
aI31808
aI47159
aI1567
aI60727
aI31808
aI47159
aI4333
aI7194
aI12690
aI17395
aI28180
aI32794
aI34147
aI38310
aI39512
aI57792
aI59002
aI99287
aI60727
aI30389
aI31808
aI47159
aI50846
aI60826
aI74796
aI84553
aI4333
aI4333
aI49437
aI50846
aI84553
aI99287
aI1142
aI91640
aI1142
aI64283
aI3482
aI49991
aI90763
aI91640
aI501
aI1142
aI25255
aI93948
aI99361
aI3482
aI39351
aI49991
aI54180
aI84485
aI99958
aI3482
aI85986
aI90763
aI1695
aI3482
aI84485
aI99958
aI1695
aI25255
aI64283
aI91640
aI99361
aI4333
aI1567
aI40468
aI96547
aI99958
aI61682
aI82408
aI85986
aI40852
aI49991
aI54180
aI84485
aI85986
aI99958
aI85986
aI1567
aI52825
aI92606
aI39351
aI54180
aI84485
aI39351
aI54180
aI82408
aI84485
aI99958
aI4473
aI7548
aI12690
aI13362
aI16903
aI17440
aI18708
aI24888
aI27174
aI33961
aI34142
aI38583
aI42686
aI48545
aI51942
aI52689
aI58318
aI63305
aI67796
aI68029
aI74028
aI80103
aI83127
aI88377
aI94563
aI97728
aI97938
aI26097
aI39351
aI45615
aI82408
aI84485
aI97613
aI16527
aI26097
aI27145
aI28512
aI45615
aI50486
aI71101
aI92678
aI97613
aI97682
aI1567
aI49437
aI11772
aI24694
aI30936
aI33961
aI40468
aI4473
aI24694
aI33961
aI40468
aI63305
aI67796
aI94563
aI4473
aI34969
aI75057
aI16527
aI4078
aI4473
aI33961
aI34147
aI40468
aI63305
aI94563
aI16527
aI27145
aI45615
aI50486
aI71101
aI92678
aI23648
aI26097
aI28512
aI39351
aI45615
aI54180
aI82408
aI84485
aI97613
aI97682
aI99361
aI1567
aI92606
aI49437
aI63920
aI39351
aI39351
aI1567
aI4333
aI51535
aI52825
aI4078
aI7548
aI16903
aI61173
aI80955
aI99287
aI3482
aI49991
aI90763
aI96547
aI99958
aI49991
aI54180
aI84485
aI99958
aI96547
aI24694
aI24888
aI27174
aI31482
aI33961
aI34142
aI35348
aI38583
aI39741
aI51942
aI52689
aI52871
aI55835
aI59502
aI63305
aI67796
aI94563
aI4473
aI18866
aI43737
aI4473
aI5746
aI7194
aI7548
aI16178
aI16903
aI17440
aI26486
aI28180
aI38583
aI42686
aI51024
aI51942
aI52689
aI58318
aI68029
aI74028
aI75694
aI80103
aI83127
aI88377
aI97728
aI5746
aI7194
aI7548
aI12690
aI16903
aI17440
aI26486
aI28180
aI34147
aI38310
aI51024
aI53514
aI70526
aI83127
aI86918
aI16527
aI1695
aI4473
aI4078
aI4078
aI16178
aI18866
aI24144
aI25722
aI28599
aI34776
aI41657
aI60771
aI66013
aI67086
aI67746
aI90488
aI92001
aI92200
aI94519
aI99958
aI4078
aI7548
aI16903
aI17440
aI26486
aI33961
aI38583
aI51942
aI52689
aI63305
aI68029
aI88377
aI94563
aI29681
aI40569
aI96871
aI11344
aI7548
aI16903
aI17440
aI26486
aI28180
aI38583
aI39741
aI51024
aI51942
aI52689
aI68029
aI80103
aI4473
aI4078
aI5746
aI7194
aI7548
aI12690
aI16903
aI17440
aI26486
aI28180
aI32794
aI34147
aI38583
aI39512
aI51024
aI68029
aI75694
aI83127
aI97728
aI10807
aI66149
aI4078
aI94563
aI40468
aI16527
aI26097
aI45615
aI50486
aI71101
aI92678
aI5561
aI23648
aI23885
aI26097
aI27145
aI28512
aI33453
aI45615
aI50486
aI60881
aI71101
aI73872
aI82408
aI93857
aI97591
aI97613
aI97682
aI23648
aI26097
aI39351
aI45615
aI68915
aI69564
aI82408
aI84485
aI97613
aI99958
aI1695
aI23648
aI26097
aI39351
aI45615
aI50486
aI68915
aI69564
aI71101
aI82408
aI84485
aI97613
aI99958
aI1695
aI39351
aI94563
aI5561
aI16527
aI23648
aI23885
aI26097
aI27145
aI28512
aI45615
aI50486
aI60881
aI68915
aI69564
aI71101
aI73872
aI82408
aI92678
aI93857
aI97591
aI97613
aI97682
aI16527
aI40468
aI1567
aI48545
aI10807
aI26486
aI66149
aI99287
aI31808
aI47159
aI50846
aI74796
aI84553
aI6986
aI11408
aI19041
aI19503
aI21068
aI45964
aI50846
aI67253
aI79910
aI94263
aI50846
aI19500
aI30389
aI50846
aI60826
aI74796
aI84553
aI17103
aI18866
aI24144
aI43690
aI67746
aI90488
aI4473
aI66526
aI48545
aI18866
aI139
aI1232
aI10669
aI14767
aI23540
aI29112
aI35030
aI38694
aI39684
aI42272
aI45625
aI49544
aI50842
aI52272
aI53452
aI53780
aI56184
aI78816
aI87394
aI98114
aI4078
aI40468
aI4899
aI13362
aI16626
aI17395
aI18708
aI24888
aI27174
aI31482
aI32794
aI34142
aI38583
aI39512
aI42686
aI48545
aI51942
aI52689
aI57792
aI58318
aI63305
aI67412
aI68029
aI74028
aI75694
aI80103
aI88377
aI97728
aI97938
aI139
aI1232
aI17395
aI32794
aI35030
aI38694
aI39512
aI52272
aI53780
aI56184
aI57792
aI59002
aI99287
aI99287
aI69547
aI1567
aI49437
aI49991
aI99958
aI3482
aI1695
aI3482
aI49991
aI49991
aI90763
aI39351
aI54180
aI61682
aI23648
aI68915
aI92678
aI16527
aI23648
aI26097
aI45615
aI50486
aI71101
aI92678
aI97613
aI5561
aI16527
aI23885
aI25299
aI26097
aI27145
aI28512
aI40852
aI45615
aI50486
aI60881
aI71101
aI73872
aI92678
aI93857
aI97682
aI5561
aI8853
aI23885
aI25299
aI27145
aI28512
aI33453
aI40852
aI43998
aI60881
aI71101
aI73872
aI76895
aI89975
aI93857
aI97591
aI97682
aI16527
aI23648
aI1142
aI45126
aI60881
a.