(lp0
I58022
aI48908
aI30459
aI48908
aI71152
aI32194
aI66589
aI30459
aI61132
aI32194
aI47389
aI41939
aI89634
aI43749
aI64972
aI783
aI8576
aI11087
aI11508
aI19448
aI24823
aI32763
aI38410
aI56384
aI71939
aI77724
aI80631
aI89972
aI60452
aI34760
aI4913
aI12316
aI21552
aI75038
aI93592
aI95342
aI97346
aI71404
aI76
aI35398
aI49912
aI56744
aI74233
aI33478
aI21051
aI2813
aI202
aI6221
aI34484
aI49066
aI61013
aI83609
aI86093
aI87118
aI92113
aI92414
aI6221
aI60804
aI3649
aI70721
aI77844
aI32790
a.