(lp0
I5237
aI28882
aI73499
aI77883
aI87393
aI88889
aI96164
aI1339
aI28505
aI50388
aI56557
aI62080
aI74637
aI25497
aI76736
aI93219
aI99069
aI88889
aI5237
aI28882
aI33512
aI56159
aI73499
aI77883
aI87393
aI96164
aI98598
aI47255
aI66644
aI98598
aI52541
aI900
aI52479
aI78799
aI82187
aI22726
aI43603
aI28860
aI35949
aI22726
aI76736
a.